
counter0.elf:     file format elf32-avr

Sections:
Idx Name          Size      VMA       LMA       File off  Algn
  0 .text         000000f6  00000000  00000000  00000054  2**1
                  CONTENTS, ALLOC, LOAD, READONLY, CODE

Disassembly of section .text:

00000000 <__vectors>:
   0:	0c 94 2a 00 	jmp	0x54	; 0x54 <__ctors_end>
   4:	0c 94 34 00 	jmp	0x68	; 0x68 <__bad_interrupt>
   8:	0c 94 34 00 	jmp	0x68	; 0x68 <__bad_interrupt>
   c:	0c 94 34 00 	jmp	0x68	; 0x68 <__bad_interrupt>
  10:	0c 94 34 00 	jmp	0x68	; 0x68 <__bad_interrupt>
  14:	0c 94 34 00 	jmp	0x68	; 0x68 <__bad_interrupt>
  18:	0c 94 34 00 	jmp	0x68	; 0x68 <__bad_interrupt>
  1c:	0c 94 34 00 	jmp	0x68	; 0x68 <__bad_interrupt>
  20:	0c 94 34 00 	jmp	0x68	; 0x68 <__bad_interrupt>
  24:	0c 94 34 00 	jmp	0x68	; 0x68 <__bad_interrupt>
  28:	0c 94 41 00 	jmp	0x82	; 0x82 <__vector_10>
  2c:	0c 94 34 00 	jmp	0x68	; 0x68 <__bad_interrupt>
  30:	0c 94 34 00 	jmp	0x68	; 0x68 <__bad_interrupt>
  34:	0c 94 34 00 	jmp	0x68	; 0x68 <__bad_interrupt>
  38:	0c 94 34 00 	jmp	0x68	; 0x68 <__bad_interrupt>
  3c:	0c 94 34 00 	jmp	0x68	; 0x68 <__bad_interrupt>
  40:	0c 94 34 00 	jmp	0x68	; 0x68 <__bad_interrupt>
  44:	0c 94 34 00 	jmp	0x68	; 0x68 <__bad_interrupt>
  48:	0c 94 34 00 	jmp	0x68	; 0x68 <__bad_interrupt>
  4c:	0c 94 34 00 	jmp	0x68	; 0x68 <__bad_interrupt>
  50:	0c 94 34 00 	jmp	0x68	; 0x68 <__bad_interrupt>

00000054 <__ctors_end>:
  54:	11 24       	eor	r1, r1
  56:	1f be       	out	0x3f, r1	; 63
  58:	cf e5       	ldi	r28, 0x5F	; 95
  5a:	d8 e0       	ldi	r29, 0x08	; 8
  5c:	de bf       	out	0x3e, r29	; 62
  5e:	cd bf       	out	0x3d, r28	; 61
  60:	0e 94 62 00 	call	0xc4	; 0xc4 <main>
  64:	0c 94 79 00 	jmp	0xf2	; 0xf2 <_exit>

00000068 <__bad_interrupt>:
  68:	0c 94 00 00 	jmp	0	; 0x0 <__vectors>

0000006c <counter_init>:
  6c:	8e e8       	ldi	r24, 0x8E	; 142
  6e:	83 bf       	out	0x33, r24	; 51
  70:	12 be       	out	0x32, r1	; 50
  72:	1c be       	out	0x3c, r1	; 60
  74:	82 e0       	ldi	r24, 0x02	; 2
  76:	89 bf       	out	0x39, r24	; 57
  78:	08 95       	ret

0000007a <counter_SV_set>:
  7a:	8c bf       	out	0x3c, r24	; 60
  7c:	08 95       	ret

0000007e <counter_PV_read>:
  7e:	82 b7       	in	r24, 0x32	; 50
  80:	08 95       	ret

00000082 <__vector_10>:
  82:	1f 92       	push	r1
  84:	0f 92       	push	r0
  86:	0f b6       	in	r0, 0x3f	; 63
  88:	0f 92       	push	r0
  8a:	11 24       	eor	r1, r1
  8c:	2f 93       	push	r18
  8e:	3f 93       	push	r19
  90:	8f 93       	push	r24
  92:	9f 93       	push	r25
  94:	ef 93       	push	r30
  96:	ff 93       	push	r31
  98:	95 98       	cbi	0x12, 5	; 18
  9a:	84 ec       	ldi	r24, 0xC4	; 196
  9c:	99 e0       	ldi	r25, 0x09	; 9
  9e:	28 ec       	ldi	r18, 0xC8	; 200
  a0:	30 e0       	ldi	r19, 0x00	; 0
  a2:	f9 01       	movw	r30, r18
  a4:	31 97       	sbiw	r30, 0x01	; 1
  a6:	f1 f7       	brne	.-4      	; 0xa4 <__vector_10+0x22>
  a8:	01 97       	sbiw	r24, 0x01	; 1
  aa:	d9 f7       	brne	.-10     	; 0xa2 <__vector_10+0x20>
  ac:	95 9a       	sbi	0x12, 5	; 18
  ae:	ff 91       	pop	r31
  b0:	ef 91       	pop	r30
  b2:	9f 91       	pop	r25
  b4:	8f 91       	pop	r24
  b6:	3f 91       	pop	r19
  b8:	2f 91       	pop	r18
  ba:	0f 90       	pop	r0
  bc:	0f be       	out	0x3f, r0	; 63
  be:	0f 90       	pop	r0
  c0:	1f 90       	pop	r1
  c2:	18 95       	reti

000000c4 <main>:
  c4:	80 ef       	ldi	r24, 0xF0	; 240
  c6:	81 bb       	out	0x11, r24	; 17
  c8:	82 bb       	out	0x12, r24	; 18
  ca:	b8 98       	cbi	0x17, 0	; 23
  cc:	0e 94 36 00 	call	0x6c	; 0x6c <counter_init>
  d0:	84 e1       	ldi	r24, 0x14	; 20
  d2:	0e 94 3d 00 	call	0x7a	; 0x7a <counter_SV_set>
  d6:	78 94       	sei
  d8:	28 ec       	ldi	r18, 0xC8	; 200
  da:	30 e0       	ldi	r19, 0x00	; 0
  dc:	82 b3       	in	r24, 0x12	; 18
  de:	80 58       	subi	r24, 0x80	; 128
  e0:	82 bb       	out	0x12, r24	; 18
  e2:	88 ee       	ldi	r24, 0xE8	; 232
  e4:	93 e0       	ldi	r25, 0x03	; 3
  e6:	f9 01       	movw	r30, r18
  e8:	31 97       	sbiw	r30, 0x01	; 1
  ea:	f1 f7       	brne	.-4      	; 0xe8 <main+0x24>
  ec:	01 97       	sbiw	r24, 0x01	; 1
  ee:	d9 f7       	brne	.-10     	; 0xe6 <main+0x22>
  f0:	f5 cf       	rjmp	.-22     	; 0xdc <main+0x18>

000000f2 <_exit>:
  f2:	f8 94       	cli

000000f4 <__stop_program>:
  f4:	ff cf       	rjmp	.-2      	; 0xf4 <__stop_program>
